target datalayout = "e-m:e-p270:32:32-p271:32:32-p272:64:64-i64:64-i128:128-f80:128-n8:16:32:64-S128"
target triple = "x86_64-pc-linux-gnu"

%struct.lua_TValue = type { %union.Value, [1 x i32], i32 }
%union.Value = type { ptr }

; Function Attrs: mustprogress nounwind uwtable
define internal noundef i32 @_ZL17luauF_vectorcrossP9lua_StateP10lua_TValueS2_iS2_i(ptr noundef %0, ptr noundef %1, ptr noundef %2, i32 noundef %3, ptr noundef %4, i32 noundef %5) #0 {
  %7 = alloca i32, align 4
  %8 = alloca ptr, align 8
  %9 = alloca ptr, align 8
  %10 = alloca ptr, align 8
  %11 = alloca i32, align 4
  %12 = alloca ptr, align 8
  %13 = alloca i32, align 4
  %14 = alloca ptr, align 8
  %15 = alloca ptr, align 8
  %16 = alloca ptr, align 8
  %17 = alloca ptr, align 8
  store ptr %0, ptr %8, align 8, !tbaa !4
  store ptr %1, ptr %9, align 8, !tbaa !9
  store ptr %2, ptr %10, align 8, !tbaa !9
  store i32 %3, ptr %11, align 4, !tbaa !11
  store ptr %4, ptr %12, align 8, !tbaa !9
  store i32 %5, ptr %13, align 4, !tbaa !11
  %18 = load i32, ptr %13, align 4, !tbaa !11
  %19 = icmp sge i32 %18, 2
  br i1 %19, label %20, label %97

20:                                               ; preds = %6
  %21 = load i32, ptr %11, align 4, !tbaa !11
  %22 = icmp sle i32 %21, 1
  br i1 %22, label %23, label %97

23:                                               ; preds = %20
  %24 = load ptr, ptr %10, align 8, !tbaa !9
  %25 = getelementptr inbounds nuw %struct.lua_TValue, ptr %24, i32 0, i32 2
  %26 = load i32, ptr %25, align 4, !tbaa !13
  %27 = icmp eq i32 %26, 4
  br i1 %27, label %28, label %97

28:                                               ; preds = %23
  %29 = load ptr, ptr %12, align 8, !tbaa !9
  %30 = getelementptr inbounds nuw %struct.lua_TValue, ptr %29, i32 0, i32 2
  %31 = load i32, ptr %30, align 4, !tbaa !13
  %32 = icmp eq i32 %31, 4
  br i1 %32, label %33, label %97

33:                                               ; preds = %28
  call void @llvm.lifetime.start.p0(i64 8, ptr %14) #17
  %34 = load ptr, ptr %10, align 8, !tbaa !9
  %35 = getelementptr inbounds nuw %struct.lua_TValue, ptr %34, i32 0, i32 0
  %36 = getelementptr inbounds [2 x float], ptr %35, i64 0, i64 0
  store ptr %36, ptr %14, align 8, !tbaa !72
  call void @llvm.lifetime.start.p0(i64 8, ptr %15) #17
  %37 = load ptr, ptr %12, align 8, !tbaa !9
  %38 = getelementptr inbounds nuw %struct.lua_TValue, ptr %37, i32 0, i32 0
  %39 = getelementptr inbounds [2 x float], ptr %38, i64 0, i64 0
  store ptr %39, ptr %15, align 8, !tbaa !72
  call void @llvm.lifetime.start.p0(i64 8, ptr %16) #17
  %40 = load ptr, ptr %9, align 8, !tbaa !9
  store ptr %40, ptr %16, align 8, !tbaa !9
  call void @llvm.lifetime.start.p0(i64 8, ptr %17) #17
  %41 = load ptr, ptr %16, align 8, !tbaa !9
  %42 = getelementptr inbounds nuw %struct.lua_TValue, ptr %41, i32 0, i32 0
  %43 = getelementptr inbounds [2 x float], ptr %42, i64 0, i64 0
  store ptr %43, ptr %17, align 8, !tbaa !72
  %44 = load ptr, ptr %14, align 8, !tbaa !72
  %45 = getelementptr inbounds float, ptr %44, i64 1
  %46 = load float, ptr %45, align 4, !tbaa !70
  %47 = load ptr, ptr %15, align 8, !tbaa !72
  %48 = getelementptr inbounds float, ptr %47, i64 2
  %49 = load float, ptr %48, align 4, !tbaa !70
  %50 = load ptr, ptr %14, align 8, !tbaa !72
  %51 = getelementptr inbounds float, ptr %50, i64 2
  %52 = load float, ptr %51, align 4, !tbaa !70
  %53 = load ptr, ptr %15, align 8, !tbaa !72
  %54 = getelementptr inbounds float, ptr %53, i64 1
  %55 = load float, ptr %54, align 4, !tbaa !70
  %56 = fmul float %52, %55
  %57 = fneg float %56
  %58 = call float @llvm.fmuladd.f32(float %46, float %49, float %57)
  %59 = load ptr, ptr %17, align 8, !tbaa !72
  %60 = getelementptr inbounds float, ptr %59, i64 0
  store float %58, ptr %60, align 4, !tbaa !70
  %61 = load ptr, ptr %14, align 8, !tbaa !72
  %62 = getelementptr inbounds float, ptr %61, i64 2
  %63 = load float, ptr %62, align 4, !tbaa !70
  %64 = load ptr, ptr %15, align 8, !tbaa !72
  %65 = getelementptr inbounds float, ptr %64, i64 0
  %66 = load float, ptr %65, align 4, !tbaa !70
  %67 = load ptr, ptr %14, align 8, !tbaa !72
  %68 = getelementptr inbounds float, ptr %67, i64 0
  %69 = load float, ptr %68, align 4, !tbaa !70
  %70 = load ptr, ptr %15, align 8, !tbaa !72
  %71 = getelementptr inbounds float, ptr %70, i64 2
  %72 = load float, ptr %71, align 4, !tbaa !70
  %73 = fmul float %69, %72
  %74 = fneg float %73
  %75 = call float @llvm.fmuladd.f32(float %63, float %66, float %74)
  %76 = load ptr, ptr %17, align 8, !tbaa !72
  %77 = getelementptr inbounds float, ptr %76, i64 1
  store float %75, ptr %77, align 4, !tbaa !70
  %78 = load ptr, ptr %14, align 8, !tbaa !72
  %79 = getelementptr inbounds float, ptr %78, i64 0
  %80 = load float, ptr %79, align 4, !tbaa !70
  %81 = load ptr, ptr %15, align 8, !tbaa !72
  %82 = getelementptr inbounds float, ptr %81, i64 1
  %83 = load float, ptr %82, align 4, !tbaa !70
  %84 = load ptr, ptr %14, align 8, !tbaa !72
  %85 = getelementptr inbounds float, ptr %84, i64 1
  %86 = load float, ptr %85, align 4, !tbaa !70
  %87 = load ptr, ptr %15, align 8, !tbaa !72
  %88 = getelementptr inbounds float, ptr %87, i64 0
  %89 = load float, ptr %88, align 4, !tbaa !70
  %90 = fmul float %86, %89
  %91 = fneg float %90
  %92 = call float @llvm.fmuladd.f32(float %80, float %83, float %91)
  %93 = load ptr, ptr %17, align 8, !tbaa !72
  %94 = getelementptr inbounds float, ptr %93, i64 2
  store float %92, ptr %94, align 4, !tbaa !70
  %95 = load ptr, ptr %16, align 8, !tbaa !9
  %96 = getelementptr inbounds nuw %struct.lua_TValue, ptr %95, i32 0, i32 2
  store i32 4, ptr %96, align 4, !tbaa !13
  call void @llvm.lifetime.end.p0(i64 8, ptr %17) #17
  call void @llvm.lifetime.end.p0(i64 8, ptr %16) #17
  store i32 1, ptr %7, align 4
  call void @llvm.lifetime.end.p0(i64 8, ptr %15) #17
  call void @llvm.lifetime.end.p0(i64 8, ptr %14) #17
  br label %98

97:                                               ; preds = %28, %23, %20, %6
  store i32 -1, ptr %7, align 4
  br label %98

98:                                               ; preds = %97, %33
  %99 = load i32, ptr %7, align 4
  ret i32 %99
}