; Function Attrs: mustprogress nofree norecurse nosync nounwind willreturn memory(argmem: readwrite) uwtable
define internal noundef range(i32 -1, 2) i32 @_ZL17luauF_vectorcrossP9lua_StateP10lua_TValueS2_iS2_i(ptr readnone captures(none) %0, ptr noundef writeonly captures(none) %1, ptr noundef readonly captures(none) %2, i32 noundef %3, ptr noundef readonly captures(none) %4, i32 noundef %5) #1 {
  %7 = icmp sgt i32 %5, 1
  %8 = icmp slt i32 %3, 2
  %or.cond = and i1 %8, %7
  br i1 %or.cond, label %9, label %46

9:                                                ; preds = %6
  %10 = getelementptr inbounds nuw i8, ptr %2, i64 12
  %11 = load i32, ptr %10, align 4, !tbaa !4
  %12 = icmp eq i32 %11, 4
  br i1 %12, label %13, label %46

13:                                               ; preds = %9
  %14 = getelementptr inbounds nuw i8, ptr %4, i64 12
  %15 = load i32, ptr %14, align 4, !tbaa !4
  %16 = icmp eq i32 %15, 4
  br i1 %16, label %17, label %46

17:                                               ; preds = %13
  %18 = getelementptr inbounds nuw i8, ptr %2, i64 4
  %19 = load float, ptr %18, align 4, !tbaa !51
  %20 = getelementptr inbounds nuw i8, ptr %4, i64 8
  %21 = load float, ptr %20, align 4, !tbaa !51
  %22 = getelementptr inbounds nuw i8, ptr %2, i64 8
  %23 = load float, ptr %22, align 4, !tbaa !51
  %24 = getelementptr inbounds nuw i8, ptr %4, i64 4
  %25 = load float, ptr %24, align 4, !tbaa !51
  %26 = fneg float %25
  %27 = fmul float %23, %26
  %28 = tail call float @llvm.fmuladd.f32(float %19, float %21, float %27)
  store float %28, ptr %1, align 4, !tbaa !51
  %29 = load float, ptr %22, align 4, !tbaa !51
  %30 = load float, ptr %4, align 4, !tbaa !51
  %31 = load float, ptr %2, align 4, !tbaa !51
  %32 = load float, ptr %20, align 4, !tbaa !51
  %33 = fneg float %32
  %34 = fmul float %31, %33
  %35 = tail call float @llvm.fmuladd.f32(float %29, float %30, float %34)
  %36 = getelementptr inbounds nuw i8, ptr %1, i64 4
  store float %35, ptr %36, align 4, !tbaa !51
  %37 = load float, ptr %2, align 4, !tbaa !51
  %38 = load float, ptr %24, align 4, !tbaa !51
  %39 = load float, ptr %18, align 4, !tbaa !51
  %40 = load float, ptr %4, align 4, !tbaa !51
  %41 = fneg float %40
  %42 = fmul float %39, %41
  %43 = tail call float @llvm.fmuladd.f32(float %37, float %38, float %42)
  %44 = getelementptr inbounds nuw i8, ptr %1, i64 8
  store float %43, ptr %44, align 4, !tbaa !51
  %45 = getelementptr inbounds nuw i8, ptr %1, i64 12
  store i32 4, ptr %45, align 4, !tbaa !4
  br label %46

46:                                               ; preds = %6, %9, %13, %17
  %.0 = phi i32 [ 1, %17 ], [ -1, %13 ], [ -1, %9 ], [ -1, %6 ]
  ret i32 %.0
}